; Function Attrs: nounwind uwtable
define dso_local void @pack64_array(ptr noundef readonly captures(none) %0, i32 noundef %1, ptr noundef %2) local_unnamed_addr #0 {
  %4 = tail call noundef i32 @llvm.bswap.i32(i32 %1)
  %5 = getelementptr inbounds nuw i8, ptr %2, i64 16
  %6 = load i32, ptr %5, align 8
  %7 = getelementptr inbounds nuw i8, ptr %2, i64 20
  %8 = load i32, ptr %7, align 4
  %9 = sub i32 %6, %8
  %10 = icmp ult i32 %9, 4
  br i1 %10, label %11, label %try_grow_buf_remaining.exit.i

11:                                               ; preds = %3
  %12 = add i32 %6, 16384
  %13 = zext i32 %12 to i64
  %14 = getelementptr inbounds nuw i8, ptr %2, i64 24
  %15 = load i8, ptr %14, align 8, !range !8, !noundef !9
  %16 = trunc nuw i8 %15 to i1
  br i1 %16, label %pack32.exit, label %17

17:                                               ; preds = %11
  %18 = getelementptr inbounds nuw i8, ptr %2, i64 25
  %19 = load i8, ptr %18, align 1, !range !8, !noundef !9
  %20 = trunc nuw i8 %19 to i1
  br i1 %20, label %pack32.exit, label %21

21:                                               ; preds = %17
  %22 = icmp ugt i32 %12, -65536
  br i1 %22, label %23, label %25

23:                                               ; preds = %21
  %24 = tail call i32 (ptr, ...) @error(ptr noundef nonnull @.str.8, ptr noundef nonnull @__func__.try_grow_buf, i64 noundef %13, i32 noundef -65536) #14
  br label %pack32.exit

25:                                               ; preds = %21
  %26 = getelementptr inbounds nuw i8, ptr %2, i64 8
  %27 = tail call ptr @slurm_xrecalloc(ptr noundef nonnull %26, i64 noundef 1, i64 noundef %13, i1 noundef zeroext true, i1 noundef zeroext true, ptr noundef nonnull @.str.1, i32 noundef 238, ptr noundef nonnull @__func__.try_grow_buf) #14
  %.not.i.i.i = icmp eq ptr %27, null
  br i1 %.not.i.i.i, label %pack32.exit, label %28

28:                                               ; preds = %25
  store i32 %12, ptr %5, align 8
  %.pre.i = load i32, ptr %7, align 4
  br label %try_grow_buf_remaining.exit.i

try_grow_buf_remaining.exit.i:                    ; preds = %28, %3
  %29 = phi i32 [ %.pre.i, %28 ], [ %8, %3 ]
  %30 = getelementptr inbounds nuw i8, ptr %2, i64 8
  %31 = load ptr, ptr %30, align 8
  %32 = zext i32 %29 to i64
  %33 = getelementptr inbounds nuw i8, ptr %31, i64 %32
  store i32 %4, ptr %33, align 1
  %34 = load i32, ptr %7, align 4
  %35 = add i32 %34, 4
  store i32 %35, ptr %7, align 4
  br label %pack32.exit

pack32.exit:                                      ; preds = %11, %17, %23, %25, %try_grow_buf_remaining.exit.i
  %.not = icmp eq i32 %1, 0
  br i1 %.not, label %._crit_edge, label %.lr.ph

.lr.ph:                                           ; preds = %pack32.exit
  %36 = getelementptr inbounds nuw i8, ptr %2, i64 24
  %37 = getelementptr inbounds nuw i8, ptr %2, i64 25
  %38 = getelementptr inbounds nuw i8, ptr %2, i64 8
  %wide.trip.count = zext i32 %1 to i64
  br label %39

39:                                               ; preds = %.lr.ph, %pack64.exit
  %indvars.iv = phi i64 [ 0, %.lr.ph ], [ %indvars.iv.next, %pack64.exit ]
  %40 = getelementptr inbounds nuw i64, ptr %0, i64 %indvars.iv
  %41 = load i64, ptr %40, align 8
  %42 = load i32, ptr %5, align 8
  %43 = load i32, ptr %7, align 4
  %44 = sub i32 %42, %43
  %45 = icmp ult i32 %44, 8
  br i1 %45, label %46, label %try_grow_buf_remaining.exit.i7

46:                                               ; preds = %39
  %47 = add i32 %42, 16384
  %48 = zext i32 %47 to i64
  %49 = load i8, ptr %36, align 8, !range !8, !noundef !9
  %50 = trunc nuw i8 %49 to i1
  br i1 %50, label %pack64.exit, label %51

51:                                               ; preds = %46
  %52 = load i8, ptr %37, align 1, !range !8, !noundef !9
  %53 = trunc nuw i8 %52 to i1
  br i1 %53, label %pack64.exit, label %54

54:                                               ; preds = %51
  %55 = icmp ugt i32 %47, -65536
  br i1 %55, label %56, label %58

56:                                               ; preds = %54
  %57 = tail call i32 (ptr, ...) @error(ptr noundef nonnull @.str.8, ptr noundef nonnull @__func__.try_grow_buf, i64 noundef %48, i32 noundef -65536) #14
  br label %pack64.exit

58:                                               ; preds = %54
  %59 = tail call ptr @slurm_xrecalloc(ptr noundef nonnull %38, i64 noundef 1, i64 noundef %48, i1 noundef zeroext true, i1 noundef zeroext true, ptr noundef nonnull @.str.1, i32 noundef 238, ptr noundef nonnull @__func__.try_grow_buf) #14
  %.not.i.i.i8 = icmp eq ptr %59, null
  br i1 %.not.i.i.i8, label %pack64.exit, label %60

60:                                               ; preds = %58
  store i32 %47, ptr %5, align 8
  %.pre.i9 = load i32, ptr %7, align 4
  br label %try_grow_buf_remaining.exit.i7

try_grow_buf_remaining.exit.i7:                   ; preds = %60, %39
  %61 = phi i32 [ %.pre.i9, %60 ], [ %43, %39 ]
  %62 = tail call i64 @llvm.bswap.i64(i64 %41)
  %63 = load ptr, ptr %38, align 8
  %64 = zext i32 %61 to i64
  %65 = getelementptr inbounds nuw i8, ptr %63, i64 %64
  store i64 %62, ptr %65, align 1
  %66 = load i32, ptr %7, align 4
  %67 = add i32 %66, 8
  store i32 %67, ptr %7, align 4
  br label %pack64.exit

pack64.exit:                                      ; preds = %46, %51, %56, %58, %try_grow_buf_remaining.exit.i7
  %indvars.iv.next = add nuw nsw i64 %indvars.iv, 1
  %exitcond.not = icmp eq i64 %indvars.iv.next, %wide.trip.count
  br i1 %exitcond.not, label %._crit_edge, label %39, !llvm.loop !19

._crit_edge:                                      ; preds = %pack64.exit, %pack32.exit
  ret void
}